; Function Attrs: mustprogress nounwind uwtable
define internal void @_ZN8facebook5velox9functions12_GLOBAL__N_111InPredicateD0Ev(ptr noundef nonnull align 8 dereferenceable(17) %this) unnamed_addr #3 align 2 personality ptr @__gxx_personality_v0 {
entry:
  store ptr getelementptr inbounds ({ [12 x ptr] }, ptr @_ZTVN8facebook5velox9functions12_GLOBAL__N_111InPredicateE, i64 0, i32 0, i64 2), ptr %this, align 8
  %filter_.i = getelementptr inbounds i8, ptr %this, i64 8
  %0 = load ptr, ptr %filter_.i, align 8
  %cmp.not.i.i = icmp eq ptr %0, null
  br i1 %cmp.not.i.i, label %_ZN8facebook5velox9functions12_GLOBAL__N_111InPredicateD2Ev.exit, label %_ZNKSt14default_deleteIN8facebook5velox6common6FilterEEclEPS3_.exit.i.i

_ZNKSt14default_deleteIN8facebook5velox6common6FilterEEclEPS3_.exit.i.i: ; preds = %entry
  %vtable.i.i.i = load ptr, ptr %0, align 8
  %vfn.i.i.i = getelementptr inbounds i8, ptr %vtable.i.i.i, i64 16
  %1 = load ptr, ptr %vfn.i.i.i, align 8
  tail call void %1(ptr noundef nonnull align 8 dereferenceable(16) %0) #34
  br label %_ZN8facebook5velox9functions12_GLOBAL__N_111InPredicateD2Ev.exit

_ZN8facebook5velox9functions12_GLOBAL__N_111InPredicateD2Ev.exit: ; preds = %entry, %_ZNKSt14default_deleteIN8facebook5velox6common6FilterEEclEPS3_.exit.i.i
  tail call void @_ZdlPv(ptr noundef nonnull %this) #37
  ret void
}